target datalayout = "e-m:e-p270:32:32-p271:32:32-p272:64:64-i64:64-i128:128-f80:128-n8:16:32:64-S128"
target triple = "x86_64-unknown-linux-gnu"

%"class.google::protobuf::TextFormat::Parser" = type { ptr, ptr, ptr, i8, i8, i8, i8, i8, i8, i8, i8, i32, ptr }

@_ZN6google8protobuf10TextFormat6ParserC1Ev = unnamed_addr alias void (ptr), ptr @_ZN6google8protobuf10TextFormat6ParserC2Ev
@_ZN6google8protobuf10TextFormat6ParserD1Ev = unnamed_addr alias void (ptr), ptr @_ZN6google8protobuf10TextFormat6ParserD2Ev

; Function Attrs: mustprogress uwtable
define noundef zeroext i1 @_ZN6google8protobuf10TextFormat13ParseFromCordERKN4absl12lts_202308024CordEPNS0_7MessageE(ptr noundef nonnull align 8 dereferenceable(16) %input, ptr noundef %output) #5 align 2 personality ptr @__gxx_personality_v0 {
entry:
  %input.addr = alloca ptr, align 8
  %output.addr = alloca ptr, align 8
  %ref.tmp = alloca %"class.google::protobuf::TextFormat::Parser", align 8
  %exn.slot = alloca ptr, align 8
  %ehselector.slot = alloca i32, align 4
  store ptr %input, ptr %input.addr, align 8
  store ptr %output, ptr %output.addr, align 8
  call void @_ZN6google8protobuf10TextFormat6ParserC1Ev(ptr noundef nonnull align 8 dereferenceable(48) %ref.tmp)
  %0 = load ptr, ptr %input.addr, align 8
  %1 = load ptr, ptr %output.addr, align 8
  %call = invoke noundef zeroext i1 @_ZN6google8protobuf10TextFormat6Parser13ParseFromCordERKN4absl12lts_202308024CordEPNS0_7MessageE(ptr noundef nonnull align 8 dereferenceable(48) %ref.tmp, ptr noundef nonnull align 8 dereferenceable(16) %0, ptr noundef %1)
          to label %invoke.cont unwind label %lpad

invoke.cont:                                      ; preds = %entry
  call void @_ZN6google8protobuf10TextFormat6ParserD1Ev(ptr noundef nonnull align 8 dereferenceable(48) %ref.tmp) #3
  ret i1 %call

lpad:                                             ; preds = %entry
  %2 = landingpad { ptr, i32 }
          cleanup
  %3 = extractvalue { ptr, i32 } %2, 0
  store ptr %3, ptr %exn.slot, align 8
  %4 = extractvalue { ptr, i32 } %2, 1
  store i32 %4, ptr %ehselector.slot, align 4
  call void @_ZN6google8protobuf10TextFormat6ParserD1Ev(ptr noundef nonnull align 8 dereferenceable(48) %ref.tmp) #3
  br label %eh.resume

eh.resume:                                        ; preds = %lpad
  %exn = load ptr, ptr %exn.slot, align 8
  %sel = load i32, ptr %ehselector.slot, align 4
  %lpad.val = insertvalue { ptr, i32 } poison, ptr %exn, 0
  %lpad.val1 = insertvalue { ptr, i32 } %lpad.val, i32 %sel, 1
  resume { ptr, i32 } %lpad.val1
}