; Function Attrs: mustprogress uwtable
define noundef zeroext i1 @_ZN6google8protobuf10TextFormat13ParseFromCordERKN4absl12lts_202308024CordEPNS0_7MessageE(ptr noundef nonnull align 8 dereferenceable(16) %input, ptr noundef %output) local_unnamed_addr #4 align 2 personality ptr @__gxx_personality_v0 {
entry:
  %ref.tmp = alloca %"class.google::protobuf::TextFormat::Parser", align 8
  call void @_ZN6google8protobuf10TextFormat6ParserC1Ev(ptr noundef nonnull align 8 dereferenceable(48) %ref.tmp)
  %call = invoke noundef zeroext i1 @_ZN6google8protobuf10TextFormat6Parser13ParseFromCordERKN4absl12lts_202308024CordEPNS0_7MessageE(ptr noundef nonnull align 8 dereferenceable(48) %ref.tmp, ptr noundef nonnull align 8 dereferenceable(16) %input, ptr noundef %output)
          to label %invoke.cont unwind label %lpad

invoke.cont:                                      ; preds = %entry
  call void @_ZN6google8protobuf10TextFormat6ParserD1Ev(ptr noundef nonnull align 8 dereferenceable(48) %ref.tmp) #34
  ret i1 %call

lpad:                                             ; preds = %entry
  %0 = landingpad { ptr, i32 }
          cleanup
  call void @_ZN6google8protobuf10TextFormat6ParserD1Ev(ptr noundef nonnull align 8 dereferenceable(48) %ref.tmp) #34
  resume { ptr, i32 } %0
}